target datalayout = "e-m:e-p270:32:32-p271:32:32-p272:64:64-i64:64-i128:128-f80:128-n8:16:32:64-S128"
target triple = "x86_64-pc-linux-gnu"

%"struct.Yosys::RTLIL::IdString" = type { i32 }
%"class.std::vector.3" = type { %"struct.std::_Vector_base.4" }
%"struct.std::_Vector_base.4" = type { %"struct.std::_Vector_base<int, std::allocator<int>>::_Vector_impl" }
%"struct.std::_Vector_base<int, std::allocator<int>>::_Vector_impl" = type { %"struct.std::_Vector_base<int, std::allocator<int>>::_Vector_impl_data" }
%"struct.std::_Vector_base<int, std::allocator<int>>::_Vector_impl_data" = type { ptr, ptr, ptr }
%"struct.std::pair.338" = type { %"struct.Yosys::RTLIL::IdString", %"class.std::vector.340" }
%"class.std::vector.340" = type { %"struct.std::_Vector_base.341" }
%"struct.std::_Vector_base.341" = type { %"struct.std::_Vector_base<(anonymous namespace)::TechmapWorker::TechmapWireData, std::allocator<(anonymous namespace)::TechmapWorker::TechmapWireData>>::_Vector_impl" }
%"struct.std::_Vector_base<(anonymous namespace)::TechmapWorker::TechmapWireData, std::allocator<(anonymous namespace)::TechmapWorker::TechmapWireData>>::_Vector_impl" = type { %"struct.std::_Vector_base<(anonymous namespace)::TechmapWorker::TechmapWireData, std::allocator<(anonymous namespace)::TechmapWorker::TechmapWireData>>::_Vector_impl_data" }
%"struct.std::_Vector_base<(anonymous namespace)::TechmapWorker::TechmapWireData, std::allocator<(anonymous namespace)::TechmapWorker::TechmapWireData>>::_Vector_impl_data" = type { ptr, ptr, ptr }
%"struct.Yosys::hashlib::dict<Yosys::RTLIL::IdString, std::vector<(anonymous namespace)::TechmapWorker::TechmapWireData>>::entry_t" = type <{ %"struct.std::pair.338", i32, [4 x i8] }>

@_ZN5Yosys5RTLIL8IdString24global_refcount_storage_E = external global %"class.std::vector.3", align 8
@_ZN5Yosys5RTLIL8IdString17destruct_guard_okE = external global i8, align 1

; Function Attrs: mustprogress nounwind uwtable
define linkonce_odr noundef nonnull align 4 dereferenceable(4) ptr @_ZNSt6vectorIiSaIiEEixEm(ptr noundef nonnull align 8 dereferenceable(24) %0, i64 noundef %1) #6 comdat align 2 {
  %3 = alloca ptr, align 8
  %4 = alloca i64, align 8
  store ptr %0, ptr %3, align 8, !tbaa !344
  store i64 %1, ptr %4, align 8, !tbaa !27
  %5 = load ptr, ptr %3, align 8
  %6 = getelementptr inbounds nuw %"struct.std::_Vector_base.4", ptr %5, i32 0, i32 0
  %7 = getelementptr inbounds nuw %"struct.std::_Vector_base<int, std::allocator<int>>::_Vector_impl_data", ptr %6, i32 0, i32 0
  %8 = load ptr, ptr %7, align 8, !tbaa !442
  %9 = load i64, ptr %4, align 8, !tbaa !27
  %10 = getelementptr inbounds nuw i32, ptr %8, i64 %9
  ret ptr %10
}

; Function Attrs: inlinehint mustprogress uwtable
define linkonce_odr void @_ZN5Yosys5RTLIL8IdString13put_referenceEi(i32 noundef %0) #9 comdat align 2 {
  %2 = alloca i32, align 4
  %3 = alloca ptr, align 8
  %4 = alloca i32, align 4
  store i32 %0, ptr %2, align 4, !tbaa !25
  %5 = load i8, ptr @_ZN5Yosys5RTLIL8IdString17destruct_guard_okE, align 1, !tbaa !101, !range !102, !noundef !103
  %6 = trunc i8 %5 to i1
  br i1 %6, label %7, label %10

7:                                                ; preds = %1
  %8 = load i32, ptr %2, align 4, !tbaa !25
  %9 = icmp ne i32 %8, 0
  br i1 %9, label %11, label %10

10:                                               ; preds = %7, %1
  br label %27

11:                                               ; preds = %7
  call void @llvm.lifetime.start.p0(i64 8, ptr %3) #3
  %12 = load i32, ptr %2, align 4, !tbaa !25
  %13 = sext i32 %12 to i64
  %14 = call noundef nonnull align 4 dereferenceable(4) ptr @_ZNSt6vectorIiSaIiEEixEm(ptr noundef nonnull align 8 dereferenceable(24) @_ZN5Yosys5RTLIL8IdString24global_refcount_storage_E, i64 noundef %13) #3
  store ptr %14, ptr %3, align 8, !tbaa !466
  %15 = load ptr, ptr %3, align 8, !tbaa !466
  %16 = load i32, ptr %15, align 4, !tbaa !25
  %17 = add nsw i32 %16, -1
  store i32 %17, ptr %15, align 4, !tbaa !25
  %18 = icmp sgt i32 %17, 0
  br i1 %18, label %19, label %20

19:                                               ; preds = %11
  store i32 1, ptr %4, align 4
  br label %25

20:                                               ; preds = %11
  br label %21

21:                                               ; preds = %20
  br label %22

22:                                               ; preds = %21
  br label %23

23:                                               ; preds = %22
  %24 = load i32, ptr %2, align 4, !tbaa !25
  call void @_ZN5Yosys5RTLIL8IdString14free_referenceEi(i32 noundef %24)
  store i32 0, ptr %4, align 4
  br label %25

25:                                               ; preds = %23, %19
  call void @llvm.lifetime.end.p0(i64 8, ptr %3) #3
  %26 = load i32, ptr %4, align 4
  switch i32 %26, label %28 [
    i32 0, label %27
    i32 1, label %27
  ]

27:                                               ; preds = %10, %25, %25
  ret void

28:                                               ; preds = %25
  unreachable
}

; Function Attrs: inlinehint mustprogress nounwind uwtable
define linkonce_odr void @_ZN5Yosys5RTLIL8IdStringD2Ev(ptr noundef nonnull align 4 dereferenceable(4) %0) unnamed_addr #7 comdat align 2 personality ptr @__gxx_personality_v0 {
  %2 = alloca ptr, align 8
  store ptr %0, ptr %2, align 8, !tbaa !99
  %3 = load ptr, ptr %2, align 8
  %4 = getelementptr inbounds nuw %"struct.Yosys::RTLIL::IdString", ptr %3, i32 0, i32 0
  %5 = load i32, ptr %4, align 4, !tbaa !128
  invoke void @_ZN5Yosys5RTLIL8IdString13put_referenceEi(i32 noundef %5)
          to label %6 unwind label %7

6:                                                ; preds = %1
  ret void

7:                                                ; preds = %1
  %8 = landingpad { ptr, i32 }
          catch ptr null
  %9 = extractvalue { ptr, i32 } %8, 0
  call void @__clang_call_terminate(ptr %9) #22
  unreachable
}

; Function Attrs: inlinehint mustprogress nounwind uwtable
define internal void @_ZNSt4pairIN5Yosys5RTLIL8IdStringESt6vectorIN12_GLOBAL__N_113TechmapWorker15TechmapWireDataESaIS6_EEED2Ev(ptr noundef nonnull align 8 dereferenceable(32) %0) unnamed_addr #7 align 2 {
  %2 = alloca ptr, align 8
  store ptr %0, ptr %2, align 8, !tbaa !297
  %3 = load ptr, ptr %2, align 8
  %4 = getelementptr inbounds nuw %"struct.std::pair.338", ptr %3, i32 0, i32 1
  call void @_ZNSt6vectorIN12_GLOBAL__N_113TechmapWorker15TechmapWireDataESaIS2_EED2Ev(ptr noundef nonnull align 8 dereferenceable(24) %4) #3
  %5 = getelementptr inbounds nuw %"struct.std::pair.338", ptr %3, i32 0, i32 0
  call void @_ZN5Yosys5RTLIL8IdStringD2Ev(ptr noundef nonnull align 4 dereferenceable(4) %5) #3
  ret void
}

; Function Attrs: inlinehint mustprogress nounwind uwtable
define internal void @_ZN5Yosys7hashlib4dictINS_5RTLIL8IdStringESt6vectorIN12_GLOBAL__N_113TechmapWorker15TechmapWireDataESaIS7_EENS0_8hash_opsIS3_EEE7entry_tD2Ev(ptr noundef nonnull align 8 dereferenceable(36) %0) unnamed_addr #7 align 2 {
  %2 = alloca ptr, align 8
  store ptr %0, ptr %2, align 8, !tbaa !1778
  %3 = load ptr, ptr %2, align 8
  %4 = getelementptr inbounds nuw %"struct.Yosys::hashlib::dict<Yosys::RTLIL::IdString, std::vector<(anonymous namespace)::TechmapWorker::TechmapWireData>>::entry_t", ptr %3, i32 0, i32 0
  call void @_ZNSt4pairIN5Yosys5RTLIL8IdStringESt6vectorIN12_GLOBAL__N_113TechmapWorker15TechmapWireDataESaIS6_EEED2Ev(ptr noundef nonnull align 8 dereferenceable(32) %4) #3
  ret void
}

; Function Attrs: mustprogress nounwind uwtable
define internal void @_ZNSt15__new_allocatorIN5Yosys7hashlib4dictINS0_5RTLIL8IdStringESt6vectorIN12_GLOBAL__N_113TechmapWorker15TechmapWireDataESaIS8_EENS1_8hash_opsIS4_EEE7entry_tEE7destroyISE_EEvPT_(ptr noundef nonnull align 1 dereferenceable(1) %0, ptr noundef %1) #6 align 2 {
  %3 = alloca ptr, align 8
  %4 = alloca ptr, align 8
  store ptr %0, ptr %3, align 8, !tbaa !1766
  store ptr %1, ptr %4, align 8, !tbaa !1778
  %5 = load ptr, ptr %4, align 8, !tbaa !1778
  call void @_ZN5Yosys7hashlib4dictINS_5RTLIL8IdStringESt6vectorIN12_GLOBAL__N_113TechmapWorker15TechmapWireDataESaIS7_EENS0_8hash_opsIS3_EEE7entry_tD2Ev(ptr noundef nonnull align 8 dereferenceable(36) %5) #3
  ret void
}

; Function Attrs: mustprogress nounwind uwtable
define internal void @_ZNSt16allocator_traitsISaIN5Yosys7hashlib4dictINS0_5RTLIL8IdStringESt6vectorIN12_GLOBAL__N_113TechmapWorker15TechmapWireDataESaIS8_EENS1_8hash_opsIS4_EEE7entry_tEEE7destroyISE_EEvRSF_PT_(ptr noundef nonnull align 1 dereferenceable(1) %0, ptr noundef %1) #6 align 2 {
  %3 = alloca ptr, align 8
  %4 = alloca ptr, align 8
  store ptr %0, ptr %3, align 8, !tbaa !1757
  store ptr %1, ptr %4, align 8, !tbaa !1778
  %5 = load ptr, ptr %3, align 8, !tbaa !1757
  %6 = load ptr, ptr %4, align 8, !tbaa !1778
  call void @_ZNSt15__new_allocatorIN5Yosys7hashlib4dictINS0_5RTLIL8IdStringESt6vectorIN12_GLOBAL__N_113TechmapWorker15TechmapWireDataESaIS8_EENS1_8hash_opsIS4_EEE7entry_tEE7destroyISE_EEvPT_(ptr noundef nonnull align 1 dereferenceable(1) %5, ptr noundef %6) #3
  ret void
}