; Function Attrs: mustprogress nounwind uwtable
define internal fastcc void @_ZNSt16allocator_traitsISaIN5Yosys7hashlib4dictINS0_5RTLIL8IdStringESt6vectorIN12_GLOBAL__N_113TechmapWorker15TechmapWireDataESaIS8_EENS1_8hash_opsIS4_EEE7entry_tEEE7destroyISE_EEvRSF_PT_(ptr noundef readonly captures(none) %0) unnamed_addr #6 align 2 personality ptr @__gxx_personality_v0 {
  %2 = getelementptr inbounds nuw i8, ptr %0, i64 8
  tail call fastcc void @_ZNSt6vectorIN12_GLOBAL__N_113TechmapWorker15TechmapWireDataESaIS2_EED2Ev(ptr noundef nonnull readonly align 8 dereferenceable(24) %2) #29
  %3 = load i32, ptr %0, align 4, !tbaa !78
  %4 = load i8, ptr @_ZN5Yosys5RTLIL8IdString17destruct_guard_okE, align 1, !tbaa !85, !range !86, !noundef !87
  %5 = trunc nuw i8 %4 to i1
  %6 = icmp ne i32 %3, 0
  %or.cond.i.i.i.i.i = and i1 %6, %5
  br i1 %or.cond.i.i.i.i.i, label %7, label %_ZNSt15__new_allocatorIN5Yosys7hashlib4dictINS0_5RTLIL8IdStringESt6vectorIN12_GLOBAL__N_113TechmapWorker15TechmapWireDataESaIS8_EENS1_8hash_opsIS4_EEE7entry_tEE7destroyISE_EEvPT_.exit

7:                                                ; preds = %1
  %8 = sext i32 %3 to i64
  %9 = load ptr, ptr @_ZN5Yosys5RTLIL8IdString24global_refcount_storage_E, align 8, !tbaa !88
  %10 = getelementptr inbounds nuw i32, ptr %9, i64 %8
  %11 = load i32, ptr %10, align 4, !tbaa !89
  %12 = add nsw i32 %11, -1
  store i32 %12, ptr %10, align 4, !tbaa !89
  %13 = icmp sgt i32 %11, 1
  br i1 %13, label %_ZNSt15__new_allocatorIN5Yosys7hashlib4dictINS0_5RTLIL8IdStringESt6vectorIN12_GLOBAL__N_113TechmapWorker15TechmapWireDataESaIS8_EENS1_8hash_opsIS4_EEE7entry_tEE7destroyISE_EEvPT_.exit, label %14

14:                                               ; preds = %7
  invoke void @_ZN5Yosys5RTLIL8IdString14free_referenceEi(i32 noundef %3)
          to label %_ZNSt15__new_allocatorIN5Yosys7hashlib4dictINS0_5RTLIL8IdStringESt6vectorIN12_GLOBAL__N_113TechmapWorker15TechmapWireDataESaIS8_EENS1_8hash_opsIS4_EEE7entry_tEE7destroyISE_EEvPT_.exit unwind label %15

15:                                               ; preds = %14
  %16 = landingpad { ptr, i32 }
          catch ptr null
  %17 = extractvalue { ptr, i32 } %16, 0
  tail call void @__clang_call_terminate(ptr %17) #32
  unreachable

_ZNSt15__new_allocatorIN5Yosys7hashlib4dictINS0_5RTLIL8IdStringESt6vectorIN12_GLOBAL__N_113TechmapWorker15TechmapWireDataESaIS8_EENS1_8hash_opsIS4_EEE7entry_tEE7destroyISE_EEvPT_.exit: ; preds = %1, %7, %14
  ret void
}